; ModuleID = '10/843.c'
source_filename = "10/843.c"
target datalayout = "e-m:e-p270:32:32-p271:32:32-p272:64:64-i64:64-f80:128-n8:16:32:64-S128"
target triple = "x86_64-pc-linux-gnu"

@.str = private unnamed_addr constant [3 x i8] c"%d\00", align 1

; Function Attrs: noinline nounwind uwtable
define dso_local i32 @main() #0 {
  %1 = alloca i32, align 4
  %2 = alloca i32, align 4
  %3 = alloca [26 x i32], align 16
  %4 = alloca [26 x i32], align 16
  %5 = alloca i32, align 4
  %6 = alloca i32, align 4
  %7 = alloca [26 x i32], align 16
  %8 = alloca i32, align 4
  %9 = alloca i32, align 4
  %10 = alloca i32, align 4
  %11 = alloca i32, align 4
  %12 = alloca i32, align 4
  store i32 0, i32* %1, align 4
  %13 = call i32 (i8*, ...) @__isoc99_scanf(i8* getelementptr inbounds ([3 x i8], [3 x i8]* @.str, i64 0, i64 0), i32* %2)
  store i32 0, i32* %5, align 4
  br label %14

14:                                               ; preds = %24, %0
  %15 = load i32, i32* %5, align 4
  %16 = load i32, i32* %2, align 4
  %17 = sub nsw i32 %16, 1
  %18 = icmp sle i32 %15, %17
  br i1 %18, label %19, label %27

19:                                               ; preds = %14
  %20 = load i32, i32* %5, align 4
  %21 = sext i32 %20 to i64
  %22 = getelementptr inbounds [26 x i32], [26 x i32]* %3, i64 0, i64 %21
  %23 = call i32 (i8*, ...) @__isoc99_scanf(i8* getelementptr inbounds ([3 x i8], [3 x i8]* @.str, i64 0, i64 0), i32* %22)
  br label %24

24:                                               ; preds = %19
  %25 = load i32, i32* %5, align 4
  %26 = add nsw i32 %25, 1
  store i32 %26, i32* %5, align 4
  br label %14

27:                                               ; preds = %14
  %28 = getelementptr inbounds [26 x i32], [26 x i32]* %4, i64 0, i64 0
  store i32 1, i32* %28, align 16
  %29 = getelementptr inbounds [26 x i32], [26 x i32]* %3, i64 0, i64 1
  %30 = load i32, i32* %29, align 4
  %31 = getelementptr inbounds [26 x i32], [26 x i32]* %3, i64 0, i64 0
  %32 = load i32, i32* %31, align 16
  %33 = icmp sle i32 %30, %32
  br i1 %33, label %34, label %36

34:                                               ; preds = %27
  %35 = getelementptr inbounds [26 x i32], [26 x i32]* %4, i64 0, i64 1
  store i32 2, i32* %35, align 4
  br label %38

36:                                               ; preds = %27
  %37 = getelementptr inbounds [26 x i32], [26 x i32]* %4, i64 0, i64 1
  store i32 1, i32* %37, align 4
  br label %38

38:                                               ; preds = %36, %34
  store i32 2, i32* %6, align 4
  br label %39

39:                                               ; preds = %106, %38
  %40 = load i32, i32* %6, align 4
  %41 = load i32, i32* %2, align 4
  %42 = sub nsw i32 %41, 1
  %43 = icmp sle i32 %40, %42
  br i1 %43, label %44, label %109

44:                                               ; preds = %39
  store i32 0, i32* %8, align 4
  br label %45

45:                                               ; preds = %73, %44
  %46 = load i32, i32* %8, align 4
  %47 = load i32, i32* %6, align 4
  %48 = sub nsw i32 %47, 1
  %49 = icmp sle i32 %46, %48
  br i1 %49, label %50, label %76

50:                                               ; preds = %45
  %51 = load i32, i32* %8, align 4
  %52 = sext i32 %51 to i64
  %53 = getelementptr inbounds [26 x i32], [26 x i32]* %3, i64 0, i64 %52
  %54 = load i32, i32* %53, align 4
  %55 = load i32, i32* %6, align 4
  %56 = sext i32 %55 to i64
  %57 = getelementptr inbounds [26 x i32], [26 x i32]* %3, i64 0, i64 %56
  %58 = load i32, i32* %57, align 4
  %59 = icmp sge i32 %54, %58
  br i1 %59, label %60, label %68

60:                                               ; preds = %50
  %61 = load i32, i32* %8, align 4
  %62 = sext i32 %61 to i64
  %63 = getelementptr inbounds [26 x i32], [26 x i32]* %4, i64 0, i64 %62
  %64 = load i32, i32* %63, align 4
  %65 = load i32, i32* %8, align 4
  %66 = sext i32 %65 to i64
  %67 = getelementptr inbounds [26 x i32], [26 x i32]* %7, i64 0, i64 %66
  store i32 %64, i32* %67, align 4
  br label %72

68:                                               ; preds = %50
  %69 = load i32, i32* %8, align 4
  %70 = sext i32 %69 to i64
  %71 = getelementptr inbounds [26 x i32], [26 x i32]* %7, i64 0, i64 %70
  store i32 0, i32* %71, align 4
  br label %72

72:                                               ; preds = %68, %60
  br label %73

73:                                               ; preds = %72
  %74 = load i32, i32* %8, align 4
  %75 = add nsw i32 %74, 1
  store i32 %75, i32* %8, align 4
  br label %45

76:                                               ; preds = %45
  %77 = getelementptr inbounds [26 x i32], [26 x i32]* %7, i64 0, i64 0
  %78 = load i32, i32* %77, align 16
  store i32 %78, i32* %9, align 4
  store i32 1, i32* %10, align 4
  br label %79

79:                                               ; preds = %97, %76
  %80 = load i32, i32* %10, align 4
  %81 = load i32, i32* %6, align 4
  %82 = sub nsw i32 %81, 1
  %83 = icmp sle i32 %80, %82
  br i1 %83, label %84, label %100

84:                                               ; preds = %79
  %85 = load i32, i32* %9, align 4
  %86 = load i32, i32* %10, align 4
  %87 = sext i32 %86 to i64
  %88 = getelementptr inbounds [26 x i32], [26 x i32]* %7, i64 0, i64 %87
  %89 = load i32, i32* %88, align 4
  %90 = icmp slt i32 %85, %89
  br i1 %90, label %91, label %96

91:                                               ; preds = %84
  %92 = load i32, i32* %10, align 4
  %93 = sext i32 %92 to i64
  %94 = getelementptr inbounds [26 x i32], [26 x i32]* %7, i64 0, i64 %93
  %95 = load i32, i32* %94, align 4
  store i32 %95, i32* %9, align 4
  br label %96

96:                                               ; preds = %91, %84
  br label %97

97:                                               ; preds = %96
  %98 = load i32, i32* %10, align 4
  %99 = add nsw i32 %98, 1
  store i32 %99, i32* %10, align 4
  br label %79

100:                                              ; preds = %79
  %101 = load i32, i32* %9, align 4
  %102 = add nsw i32 %101, 1
  %103 = load i32, i32* %6, align 4
  %104 = sext i32 %103 to i64
  %105 = getelementptr inbounds [26 x i32], [26 x i32]* %4, i64 0, i64 %104
  store i32 %102, i32* %105, align 4
  br label %106

106:                                              ; preds = %100
  %107 = load i32, i32* %6, align 4
  %108 = add nsw i32 %107, 1
  store i32 %108, i32* %6, align 4
  br label %39

109:                                              ; preds = %39
  %110 = getelementptr inbounds [26 x i32], [26 x i32]* %4, i64 0, i64 0
  %111 = load i32, i32* %110, align 16
  store i32 %111, i32* %11, align 4
  store i32 1, i32* %12, align 4
  br label %112

112:                                              ; preds = %130, %109
  %113 = load i32, i32* %12, align 4
  %114 = load i32, i32* %2, align 4
  %115 = sub nsw i32 %114, 1
  %116 = icmp sle i32 %113, %115
  br i1 %116, label %117, label %133

117:                                              ; preds = %112
  %118 = load i32, i32* %12, align 4
  %119 = sext i32 %118 to i64
  %120 = getelementptr inbounds [26 x i32], [26 x i32]* %4, i64 0, i64 %119
  %121 = load i32, i32* %120, align 4
  %122 = load i32, i32* %11, align 4
  %123 = icmp sgt i32 %121, %122
  br i1 %123, label %124, label %129

124:                                              ; preds = %117
  %125 = load i32, i32* %12, align 4
  %126 = sext i32 %125 to i64
  %127 = getelementptr inbounds [26 x i32], [26 x i32]* %4, i64 0, i64 %126
  %128 = load i32, i32* %127, align 4
  store i32 %128, i32* %11, align 4
  br label %129

129:                                              ; preds = %124, %117
  br label %130

130:                                              ; preds = %129
  %131 = load i32, i32* %12, align 4
  %132 = add nsw i32 %131, 1
  store i32 %132, i32* %12, align 4
  br label %112

133:                                              ; preds = %112
  %134 = load i32, i32* %11, align 4
  %135 = call i32 (i8*, ...) @printf(i8* getelementptr inbounds ([3 x i8], [3 x i8]* @.str, i64 0, i64 0), i32 %134)
  %136 = load i32, i32* %1, align 4
  ret i32 %136
}

declare dso_local i32 @__isoc99_scanf(i8*, ...) #1

declare dso_local i32 @printf(i8*, ...) #1


!llvm.module.flags = !{!0}
!llvm.ident = !{!1}

!0 = !{i32 1, !"wchar_size", i32 4}
!1 = !{!"clang version 10.0.0-4ubuntu1 "}
